target datalayout = "e-m:e-p270:32:32-p271:32:32-p272:64:64-i64:64-i128:128-f80:128-n8:16:32:64-S128"
target triple = "x86_64-pc-linux-gnu"

%struct.gz_state = type { %struct.gzFile_s, i32, i32, ptr, i32, i32, ptr, ptr, i32, i32, i64, i32, i32, i32, i32, i64, i32, i32, ptr, %struct.z_stream_s }
%struct.gzFile_s = type { i32, ptr, i64 }
%struct.z_stream_s = type { ptr, i32, i64, ptr, i32, i64, ptr, ptr, ptr, ptr, ptr, i32, i64, i64, i32 }

@.str.3 = private unnamed_addr constant [39 x i8] c"internal error: deflate stream corrupt\00", align 1

; Function Attrs: nounwind uwtable
define internal i32 @gz_comp(ptr noundef %0, i32 noundef %1) #0 {
  %3 = alloca i32, align 4
  %4 = alloca ptr, align 8
  %5 = alloca i32, align 4
  %6 = alloca i32, align 4
  %7 = alloca i32, align 4
  %8 = alloca i32, align 4
  %9 = alloca ptr, align 8
  %10 = alloca i32, align 4
  store ptr %0, ptr %4, align 8, !tbaa !8
  store i32 %1, ptr %5, align 4, !tbaa !9
  call void @llvm.lifetime.start.p0(i64 4, ptr %6) #10
  call void @llvm.lifetime.start.p0(i64 4, ptr %7) #10
  call void @llvm.lifetime.start.p0(i64 4, ptr %8) #10
  call void @llvm.lifetime.start.p0(i64 8, ptr %9) #10
  %11 = load ptr, ptr %4, align 8, !tbaa !8
  %12 = getelementptr inbounds nuw %struct.gz_state, ptr %11, i32 0, i32 19
  store ptr %12, ptr %9, align 8, !tbaa !11
  %13 = load ptr, ptr %4, align 8, !tbaa !8
  %14 = getelementptr inbounds nuw %struct.gz_state, ptr %13, i32 0, i32 4
  %15 = load i32, ptr %14, align 8, !tbaa !21
  %16 = icmp eq i32 %15, 0
  br i1 %16, label %17, label %22

17:                                               ; preds = %2
  %18 = load ptr, ptr %4, align 8, !tbaa !8
  %19 = call i32 @gz_init(ptr noundef %18)
  %20 = icmp eq i32 %19, -1
  br i1 %20, label %21, label %22

21:                                               ; preds = %17
  store i32 -1, ptr %3, align 4
  store i32 1, ptr %10, align 4
  br label %157

22:                                               ; preds = %17, %2
  %23 = load ptr, ptr %4, align 8, !tbaa !8
  %24 = getelementptr inbounds nuw %struct.gz_state, ptr %23, i32 0, i32 8
  %25 = load i32, ptr %24, align 8, !tbaa !31
  %26 = icmp ne i32 %25, 0
  br i1 %26, label %27, label %56

27:                                               ; preds = %22
  %28 = load ptr, ptr %4, align 8, !tbaa !8
  %29 = getelementptr inbounds nuw %struct.gz_state, ptr %28, i32 0, i32 2
  %30 = load i32, ptr %29, align 4, !tbaa !43
  %31 = load ptr, ptr %9, align 8, !tbaa !11
  %32 = getelementptr inbounds nuw %struct.z_stream_s, ptr %31, i32 0, i32 0
  %33 = load ptr, ptr %32, align 8, !tbaa !26
  %34 = load ptr, ptr %9, align 8, !tbaa !11
  %35 = getelementptr inbounds nuw %struct.z_stream_s, ptr %34, i32 0, i32 1
  %36 = load i32, ptr %35, align 8, !tbaa !24
  %37 = zext i32 %36 to i64
  %38 = call i64 @write(i32 noundef %30, ptr noundef %33, i64 noundef %37)
  %39 = trunc i64 %38 to i32
  store i32 %39, ptr %7, align 4, !tbaa !9
  %40 = load i32, ptr %7, align 4, !tbaa !9
  %41 = icmp slt i32 %40, 0
  br i1 %41, label %48, label %42

42:                                               ; preds = %27
  %43 = load i32, ptr %7, align 4, !tbaa !9
  %44 = load ptr, ptr %9, align 8, !tbaa !11
  %45 = getelementptr inbounds nuw %struct.z_stream_s, ptr %44, i32 0, i32 1
  %46 = load i32, ptr %45, align 8, !tbaa !24
  %47 = icmp ne i32 %43, %46
  br i1 %47, label %48, label %53

48:                                               ; preds = %42, %27
  %49 = load ptr, ptr %4, align 8, !tbaa !8
  %50 = call ptr @__errno_location() #12
  %51 = load i32, ptr %50, align 4, !tbaa !9
  %52 = call ptr @strerror(i32 noundef %51) #10
  call void @MOZ_Z_gz_error(ptr noundef %49, i32 noundef -1, ptr noundef %52)
  store i32 -1, ptr %3, align 4
  store i32 1, ptr %10, align 4
  br label %157

53:                                               ; preds = %42
  %54 = load ptr, ptr %9, align 8, !tbaa !11
  %55 = getelementptr inbounds nuw %struct.z_stream_s, ptr %54, i32 0, i32 1
  store i32 0, ptr %55, align 8, !tbaa !24
  store i32 0, ptr %3, align 4
  store i32 1, ptr %10, align 4
  br label %157

56:                                               ; preds = %22
  store i32 0, ptr %6, align 4, !tbaa !9
  br label %57

57:                                               ; preds = %147, %56
  %58 = load ptr, ptr %9, align 8, !tbaa !11
  %59 = getelementptr inbounds nuw %struct.z_stream_s, ptr %58, i32 0, i32 4
  %60 = load i32, ptr %59, align 8, !tbaa !38
  %61 = icmp eq i32 %60, 0
  br i1 %61, label %71, label %62

62:                                               ; preds = %57
  %63 = load i32, ptr %5, align 4, !tbaa !9
  %64 = icmp ne i32 %63, 0
  br i1 %64, label %65, label %130

65:                                               ; preds = %62
  %66 = load i32, ptr %5, align 4, !tbaa !9
  %67 = icmp ne i32 %66, 4
  br i1 %67, label %71, label %68

68:                                               ; preds = %65
  %69 = load i32, ptr %6, align 4, !tbaa !9
  %70 = icmp eq i32 %69, 1
  br i1 %70, label %71, label %130

71:                                               ; preds = %68, %65, %57
  %72 = load ptr, ptr %9, align 8, !tbaa !11
  %73 = getelementptr inbounds nuw %struct.z_stream_s, ptr %72, i32 0, i32 3
  %74 = load ptr, ptr %73, align 8, !tbaa !39
  %75 = load ptr, ptr %4, align 8, !tbaa !8
  %76 = getelementptr inbounds nuw %struct.gz_state, ptr %75, i32 0, i32 0
  %77 = getelementptr inbounds nuw %struct.gzFile_s, ptr %76, i32 0, i32 1
  %78 = load ptr, ptr %77, align 8, !tbaa !40
  %79 = ptrtoint ptr %74 to i64
  %80 = ptrtoint ptr %78 to i64
  %81 = sub i64 %79, %80
  %82 = trunc i64 %81 to i32
  store i32 %82, ptr %8, align 4, !tbaa !9
  %83 = load i32, ptr %8, align 4, !tbaa !9
  %84 = icmp ne i32 %83, 0
  br i1 %84, label %85, label %107

85:                                               ; preds = %71
  %86 = load ptr, ptr %4, align 8, !tbaa !8
  %87 = getelementptr inbounds nuw %struct.gz_state, ptr %86, i32 0, i32 2
  %88 = load i32, ptr %87, align 4, !tbaa !43
  %89 = load ptr, ptr %4, align 8, !tbaa !8
  %90 = getelementptr inbounds nuw %struct.gz_state, ptr %89, i32 0, i32 0
  %91 = getelementptr inbounds nuw %struct.gzFile_s, ptr %90, i32 0, i32 1
  %92 = load ptr, ptr %91, align 8, !tbaa !40
  %93 = load i32, ptr %8, align 4, !tbaa !9
  %94 = zext i32 %93 to i64
  %95 = call i64 @write(i32 noundef %88, ptr noundef %92, i64 noundef %94)
  %96 = trunc i64 %95 to i32
  store i32 %96, ptr %7, align 4, !tbaa !9
  %97 = icmp slt i32 %96, 0
  br i1 %97, label %102, label %98

98:                                               ; preds = %85
  %99 = load i32, ptr %7, align 4, !tbaa !9
  %100 = load i32, ptr %8, align 4, !tbaa !9
  %101 = icmp ne i32 %99, %100
  br i1 %101, label %102, label %107

102:                                              ; preds = %98, %85
  %103 = load ptr, ptr %4, align 8, !tbaa !8
  %104 = call ptr @__errno_location() #12
  %105 = load i32, ptr %104, align 4, !tbaa !9
  %106 = call ptr @strerror(i32 noundef %105) #10
  call void @MOZ_Z_gz_error(ptr noundef %103, i32 noundef -1, ptr noundef %106)
  store i32 -1, ptr %3, align 4
  store i32 1, ptr %10, align 4
  br label %157

107:                                              ; preds = %98, %71
  %108 = load ptr, ptr %9, align 8, !tbaa !11
  %109 = getelementptr inbounds nuw %struct.z_stream_s, ptr %108, i32 0, i32 4
  %110 = load i32, ptr %109, align 8, !tbaa !38
  %111 = icmp eq i32 %110, 0
  br i1 %111, label %112, label %123

112:                                              ; preds = %107
  %113 = load ptr, ptr %4, align 8, !tbaa !8
  %114 = getelementptr inbounds nuw %struct.gz_state, ptr %113, i32 0, i32 4
  %115 = load i32, ptr %114, align 8, !tbaa !21
  %116 = load ptr, ptr %9, align 8, !tbaa !11
  %117 = getelementptr inbounds nuw %struct.z_stream_s, ptr %116, i32 0, i32 4
  store i32 %115, ptr %117, align 8, !tbaa !38
  %118 = load ptr, ptr %4, align 8, !tbaa !8
  %119 = getelementptr inbounds nuw %struct.gz_state, ptr %118, i32 0, i32 7
  %120 = load ptr, ptr %119, align 8, !tbaa !32
  %121 = load ptr, ptr %9, align 8, !tbaa !11
  %122 = getelementptr inbounds nuw %struct.z_stream_s, ptr %121, i32 0, i32 3
  store ptr %120, ptr %122, align 8, !tbaa !39
  br label %123

123:                                              ; preds = %112, %107
  %124 = load ptr, ptr %9, align 8, !tbaa !11
  %125 = getelementptr inbounds nuw %struct.z_stream_s, ptr %124, i32 0, i32 3
  %126 = load ptr, ptr %125, align 8, !tbaa !39
  %127 = load ptr, ptr %4, align 8, !tbaa !8
  %128 = getelementptr inbounds nuw %struct.gz_state, ptr %127, i32 0, i32 0
  %129 = getelementptr inbounds nuw %struct.gzFile_s, ptr %128, i32 0, i32 1
  store ptr %126, ptr %129, align 8, !tbaa !40
  br label %130

130:                                              ; preds = %123, %68, %62
  %131 = load ptr, ptr %9, align 8, !tbaa !11
  %132 = getelementptr inbounds nuw %struct.z_stream_s, ptr %131, i32 0, i32 4
  %133 = load i32, ptr %132, align 8, !tbaa !38
  store i32 %133, ptr %8, align 4, !tbaa !9
  %134 = load ptr, ptr %9, align 8, !tbaa !11
  %135 = load i32, ptr %5, align 4, !tbaa !9
  %136 = call i32 @MOZ_Z_deflate(ptr noundef %134, i32 noundef %135)
  store i32 %136, ptr %6, align 4, !tbaa !9
  %137 = load i32, ptr %6, align 4, !tbaa !9
  %138 = icmp eq i32 %137, -2
  br i1 %138, label %139, label %141

139:                                              ; preds = %130
  %140 = load ptr, ptr %4, align 8, !tbaa !8
  call void @MOZ_Z_gz_error(ptr noundef %140, i32 noundef -2, ptr noundef @.str.3)
  store i32 -1, ptr %3, align 4
  store i32 1, ptr %10, align 4
  br label %157

141:                                              ; preds = %130
  %142 = load ptr, ptr %9, align 8, !tbaa !11
  %143 = getelementptr inbounds nuw %struct.z_stream_s, ptr %142, i32 0, i32 4
  %144 = load i32, ptr %143, align 8, !tbaa !38
  %145 = load i32, ptr %8, align 4, !tbaa !9
  %146 = sub i32 %145, %144
  store i32 %146, ptr %8, align 4, !tbaa !9
  br label %147

147:                                              ; preds = %141
  %148 = load i32, ptr %8, align 4, !tbaa !9
  %149 = icmp ne i32 %148, 0
  br i1 %149, label %57, label %150, !llvm.loop !44

150:                                              ; preds = %147
  %151 = load i32, ptr %5, align 4, !tbaa !9
  %152 = icmp eq i32 %151, 4
  br i1 %152, label %153, label %156

153:                                              ; preds = %150
  %154 = load ptr, ptr %9, align 8, !tbaa !11
  %155 = call i32 @MOZ_Z_deflateReset(ptr noundef %154)
  br label %156

156:                                              ; preds = %153, %150
  store i32 0, ptr %3, align 4
  store i32 1, ptr %10, align 4
  br label %157

157:                                              ; preds = %156, %139, %102, %53, %48, %21
  call void @llvm.lifetime.end.p0(i64 8, ptr %9) #10
  call void @llvm.lifetime.end.p0(i64 4, ptr %8) #10
  call void @llvm.lifetime.end.p0(i64 4, ptr %7) #10
  call void @llvm.lifetime.end.p0(i64 4, ptr %6) #10
  %158 = load i32, ptr %3, align 4
  ret i32 %158
}