; Function Attrs: nounwind uwtable
define internal fastcc range(i32 -1, 1) i32 @gz_comp(ptr noundef nonnull %0, i32 noundef range(i32 0, 5) %1) unnamed_addr #0 {
  %3 = getelementptr inbounds nuw i8, ptr %0, i64 120
  %4 = getelementptr inbounds nuw i8, ptr %0, i64 40
  %5 = load i32, ptr %4, align 8, !tbaa !15
  %6 = icmp eq i32 %5, 0
  br i1 %6, label %7, label %10

7:                                                ; preds = %2
  %8 = tail call fastcc i32 @gz_init(ptr noundef %0)
  %9 = icmp eq i32 %8, -1
  br i1 %9, label %125, label %10

10:                                               ; preds = %7, %2
  %11 = getelementptr inbounds nuw i8, ptr %0, i64 64
  %12 = load i32, ptr %11, align 8, !tbaa !26
  %.not = icmp eq i32 %12, 0
  br i1 %.not, label %.preheader, label %71

.preheader:                                       ; preds = %10
  %13 = getelementptr inbounds nuw i8, ptr %0, i64 152
  %14 = getelementptr inbounds nuw i8, ptr %0, i64 144
  %15 = getelementptr inbounds nuw i8, ptr %0, i64 8
  %16 = getelementptr inbounds nuw i8, ptr %0, i64 28
  %17 = getelementptr inbounds nuw i8, ptr %0, i64 56
  switch i32 %1, label %.preheader.split.split.us [
    i32 0, label %.preheader.split.us.preheader
    i32 4, label %.preheader.split.split.preheader
  ]

.preheader.split.split.preheader:                 ; preds = %.preheader
  %.pre = load i32, ptr %13, align 8, !tbaa !30
  br label %.preheader.split.split

.preheader.split.us.preheader:                    ; preds = %.preheader
  %.pre73 = load i32, ptr %13, align 8, !tbaa !30
  br label %.preheader.split.us

.preheader.split.us:                              ; preds = %.preheader.split.us.preheader, %44
  %18 = phi i32 [ %.pre73, %.preheader.split.us.preheader ], [ %45, %44 ]
  %19 = icmp eq i32 %18, 0
  br i1 %19, label %20, label %40

20:                                               ; preds = %.preheader.split.us
  %21 = load ptr, ptr %14, align 8, !tbaa !31
  %22 = load ptr, ptr %15, align 8, !tbaa !32
  %23 = ptrtoint ptr %21 to i64
  %24 = ptrtoint ptr %22 to i64
  %25 = sub i64 %23, %24
  %26 = trunc i64 %25 to i32
  %.not50.us = icmp eq i32 %26, 0
  br i1 %.not50.us, label %.thread, label %27

27:                                               ; preds = %20
  %28 = load i32, ptr %16, align 4, !tbaa !33
  %29 = and i64 %25, 4294967295
  %30 = tail call i64 @write(i32 noundef %28, ptr noundef %22, i64 noundef %29) #14
  %31 = trunc i64 %30 to i32
  %32 = icmp sgt i32 %31, -1
  %.not51.us = icmp eq i32 %31, %26
  %or.cond54.us = and i1 %32, %.not51.us
  br i1 %or.cond54.us, label %33, label %.split.us

33:                                               ; preds = %27
  %.pre75 = load i32, ptr %13, align 8, !tbaa !30
  %34 = icmp eq i32 %.pre75, 0
  br i1 %34, label %.thread, label %._crit_edge76

._crit_edge76:                                    ; preds = %33
  %.pre77 = load ptr, ptr %14, align 8, !tbaa !31
  br label %37

.thread:                                          ; preds = %20, %33
  %35 = load i32, ptr %4, align 8, !tbaa !15
  store i32 %35, ptr %13, align 8, !tbaa !30
  %36 = load ptr, ptr %17, align 8, !tbaa !27
  store ptr %36, ptr %14, align 8, !tbaa !31
  br label %37

37:                                               ; preds = %._crit_edge76, %.thread
  %38 = phi i32 [ %.pre75, %._crit_edge76 ], [ %35, %.thread ]
  %39 = phi ptr [ %.pre77, %._crit_edge76 ], [ %36, %.thread ]
  store ptr %39, ptr %15, align 8, !tbaa !32
  br label %40

40:                                               ; preds = %.preheader.split.us, %37
  %41 = phi i32 [ %18, %.preheader.split.us ], [ %38, %37 ]
  %42 = tail call i32 @MOZ_Z_deflate(ptr noundef nonnull %3, i32 noundef 0) #14
  %43 = icmp eq i32 %42, -2
  br i1 %43, label %.split56.us, label %44

44:                                               ; preds = %40
  %45 = load i32, ptr %13, align 8, !tbaa !30
  %.not52.us = icmp eq i32 %41, %45
  br i1 %.not52.us, label %.split58.us, label %.preheader.split.us, !llvm.loop !34

.preheader.split.split.us:                        ; preds = %.preheader, %69
  %46 = load ptr, ptr %14, align 8, !tbaa !31
  %47 = load ptr, ptr %15, align 8, !tbaa !32
  %48 = ptrtoint ptr %46 to i64
  %49 = ptrtoint ptr %47 to i64
  %50 = sub i64 %48, %49
  %51 = trunc i64 %50 to i32
  %.not50.us60 = icmp eq i32 %51, 0
  br i1 %.not50.us60, label %58, label %52

52:                                               ; preds = %.preheader.split.split.us
  %53 = load i32, ptr %16, align 4, !tbaa !33
  %54 = and i64 %50, 4294967295
  %55 = tail call i64 @write(i32 noundef %53, ptr noundef %47, i64 noundef %54) #14
  %56 = trunc i64 %55 to i32
  %57 = icmp sgt i32 %56, -1
  %.not51.us61 = icmp eq i32 %56, %51
  %or.cond54.us62 = and i1 %57, %.not51.us61
  br i1 %or.cond54.us62, label %58, label %.split.us

58:                                               ; preds = %52, %.preheader.split.split.us
  %59 = load i32, ptr %13, align 8, !tbaa !30
  %60 = icmp eq i32 %59, 0
  br i1 %60, label %61, label %._crit_edge78

._crit_edge78:                                    ; preds = %58
  %.pre79 = load ptr, ptr %14, align 8, !tbaa !31
  br label %64

61:                                               ; preds = %58
  %62 = load i32, ptr %4, align 8, !tbaa !15
  store i32 %62, ptr %13, align 8, !tbaa !30
  %63 = load ptr, ptr %17, align 8, !tbaa !27
  store ptr %63, ptr %14, align 8, !tbaa !31
  br label %64

64:                                               ; preds = %._crit_edge78, %61
  %65 = phi i32 [ %59, %._crit_edge78 ], [ %62, %61 ]
  %66 = phi ptr [ %.pre79, %._crit_edge78 ], [ %63, %61 ]
  store ptr %66, ptr %15, align 8, !tbaa !32
  %67 = tail call i32 @MOZ_Z_deflate(ptr noundef nonnull %3, i32 noundef %1) #14
  %68 = icmp eq i32 %67, -2
  br i1 %68, label %.split56.us, label %69

69:                                               ; preds = %64
  %70 = load i32, ptr %13, align 8, !tbaa !30
  %.not52.us63 = icmp eq i32 %65, %70
  br i1 %.not52.us63, label %.split58.us, label %.preheader.split.split.us, !llvm.loop !34

71:                                               ; preds = %10
  %72 = getelementptr inbounds nuw i8, ptr %0, i64 28
  %73 = load i32, ptr %72, align 4, !tbaa !33
  %74 = load ptr, ptr %3, align 8, !tbaa !22
  %75 = getelementptr inbounds nuw i8, ptr %0, i64 128
  %76 = load i32, ptr %75, align 8, !tbaa !18
  %77 = zext i32 %76 to i64
  %78 = tail call i64 @write(i32 noundef %73, ptr noundef %74, i64 noundef %77) #14
  %79 = trunc i64 %78 to i32
  %80 = icmp slt i32 %79, 0
  br i1 %80, label %83, label %81

81:                                               ; preds = %71
  %82 = load i32, ptr %75, align 8, !tbaa !18
  %.not53 = icmp eq i32 %82, %79
  br i1 %.not53, label %87, label %83

83:                                               ; preds = %81, %71
  %84 = tail call ptr @__errno_location() #16
  %85 = load i32, ptr %84, align 4, !tbaa !35
  %86 = tail call ptr @strerror(i32 noundef %85) #14
  tail call void @MOZ_Z_gz_error(ptr noundef nonnull %0, i32 noundef -1, ptr noundef %86) #14
  br label %125

87:                                               ; preds = %81
  store i32 0, ptr %75, align 8, !tbaa !18
  br label %125

.preheader.split.split:                           ; preds = %.preheader.split.split.preheader, %120
  %88 = phi i32 [ %121, %120 ], [ %.pre, %.preheader.split.split.preheader ]
  %.043 = phi i32 [ %118, %120 ], [ 0, %.preheader.split.split.preheader ]
  %89 = icmp eq i32 %88, 0
  %90 = icmp eq i32 %.043, 1
  %or.cond = or i1 %89, %90
  br i1 %or.cond, label %91, label %116

91:                                               ; preds = %.preheader.split.split
  %92 = load ptr, ptr %14, align 8, !tbaa !31
  %93 = load ptr, ptr %15, align 8, !tbaa !32
  %94 = ptrtoint ptr %92 to i64
  %95 = ptrtoint ptr %93 to i64
  %96 = sub i64 %94, %95
  %97 = trunc i64 %96 to i32
  %.not50 = icmp eq i32 %97, 0
  br i1 %.not50, label %107, label %98

98:                                               ; preds = %91
  %99 = load i32, ptr %16, align 4, !tbaa !33
  %100 = and i64 %96, 4294967295
  %101 = tail call i64 @write(i32 noundef %99, ptr noundef %93, i64 noundef %100) #14
  %102 = trunc i64 %101 to i32
  %103 = icmp sgt i32 %102, -1
  %.not51 = icmp eq i32 %102, %97
  %or.cond54 = and i1 %103, %.not51
  br i1 %or.cond54, label %._crit_edge, label %.split.us

._crit_edge:                                      ; preds = %98
  %.pre70 = load i32, ptr %13, align 8, !tbaa !30
  br label %107

.split.us:                                        ; preds = %98, %27, %52
  %104 = tail call ptr @__errno_location() #16
  %105 = load i32, ptr %104, align 4, !tbaa !35
  %106 = tail call ptr @strerror(i32 noundef %105) #14
  tail call void @MOZ_Z_gz_error(ptr noundef nonnull %0, i32 noundef -1, ptr noundef %106) #14
  br label %125

107:                                              ; preds = %._crit_edge, %91
  %108 = phi i32 [ %.pre70, %._crit_edge ], [ %88, %91 ]
  %109 = icmp eq i32 %108, 0
  br i1 %109, label %110, label %._crit_edge71

._crit_edge71:                                    ; preds = %107
  %.pre72 = load ptr, ptr %14, align 8, !tbaa !31
  br label %113

110:                                              ; preds = %107
  %111 = load i32, ptr %4, align 8, !tbaa !15
  store i32 %111, ptr %13, align 8, !tbaa !30
  %112 = load ptr, ptr %17, align 8, !tbaa !27
  store ptr %112, ptr %14, align 8, !tbaa !31
  br label %113

113:                                              ; preds = %._crit_edge71, %110
  %114 = phi i32 [ %108, %._crit_edge71 ], [ %111, %110 ]
  %115 = phi ptr [ %.pre72, %._crit_edge71 ], [ %112, %110 ]
  store ptr %115, ptr %15, align 8, !tbaa !32
  br label %116

116:                                              ; preds = %.preheader.split.split, %113
  %117 = phi i32 [ %88, %.preheader.split.split ], [ %114, %113 ]
  %118 = tail call i32 @MOZ_Z_deflate(ptr noundef nonnull %3, i32 noundef 4) #14
  %119 = icmp eq i32 %118, -2
  br i1 %119, label %.split56.us, label %120

.split56.us:                                      ; preds = %116, %40, %64
  tail call void @MOZ_Z_gz_error(ptr noundef nonnull %0, i32 noundef -2, ptr noundef nonnull @.str.3) #14
  br label %125

120:                                              ; preds = %116
  %121 = load i32, ptr %13, align 8, !tbaa !30
  %.not52 = icmp eq i32 %117, %121
  br i1 %.not52, label %.split58.us, label %.preheader.split.split, !llvm.loop !34

.split58.us:                                      ; preds = %120, %44, %69
  %122 = icmp eq i32 %1, 4
  br i1 %122, label %123, label %125

123:                                              ; preds = %.split58.us
  %124 = tail call i32 @MOZ_Z_deflateReset(ptr noundef nonnull %3) #14
  br label %125

125:                                              ; preds = %.split58.us, %123, %7, %.split56.us, %.split.us, %87, %83
  %.0 = phi i32 [ -1, %83 ], [ 0, %87 ], [ -1, %.split.us ], [ -1, %.split56.us ], [ -1, %7 ], [ 0, %123 ], [ 0, %.split58.us ]
  ret i32 %.0
}